; Function Attrs: nounwind uwtable
define range(i32 -1, 1) i32 @H5FA__hdr_decr(ptr noundef %0) local_unnamed_addr #0 {
  %2 = load i8, ptr @H5FA_init_g, align 1, !tbaa !3, !range !7, !noundef !8
  %3 = trunc nuw i8 %2 to i1
  %4 = load i8, ptr @H5_libterm_g, align 1, !range !7
  %5 = trunc nuw i8 %4 to i1
  %6 = xor i1 %5, true
  %7 = select i1 %3, i1 true, i1 %6
  br i1 %7, label %8, label %20, !prof !9

8:                                                ; preds = %1
  %9 = getelementptr inbounds nuw i8, ptr %0, i64 304
  %10 = load i64, ptr %9, align 8, !tbaa !44
  %11 = add i64 %10, -1
  store i64 %11, ptr %9, align 8, !tbaa !44
  %12 = icmp eq i64 %11, 0
  br i1 %12, label %13, label %20

13:                                               ; preds = %8
  %14 = tail call i32 @H5AC_unpin_entry(ptr noundef nonnull %0) #5
  %15 = icmp slt i32 %14, 0
  br i1 %15, label %16, label %20

16:                                               ; preds = %13
  %17 = load i64, ptr @H5E_FARRAY_g, align 8, !tbaa !10
  %18 = load i64, ptr @H5E_CANTUNPIN_g, align 8, !tbaa !10
  %19 = tail call i32 (ptr, ptr, i32, i64, i64, ptr, ...) @H5E_printf_stack(ptr noundef nonnull @.str, ptr noundef nonnull @__func__.H5FA__hdr_decr, i32 noundef 305, i64 noundef %17, i64 noundef %18, ptr noundef nonnull @.str.13) #5
  br label %20

20:                                               ; preds = %16, %13, %8, %1
  %.0 = phi i32 [ -1, %16 ], [ 0, %13 ], [ 0, %8 ], [ 0, %1 ]
  ret i32 %.0
}